Certificate:
    Data:
        Version: 3 (0x2)
        Serial Number: 1 (0x1)
    Signature Algorithm: sha256WithRSAEncryption
        Issuer: C=FI, ST=Helsinki, L=Helsinki, O=Lokittajat, CN=Eino Kupias
        Validity
            Not Before: Nov  2 11:12:56 2018 GMT
            Not After : Nov  2 11:12:56 2019 GMT
        Subject: C=FI, ST=Helsinki, L=Helsinki, O=Lokittajat, CN=172.28.171.54
        Subject Public Key Info:
            Public Key Algorithm: rsaEncryption
                Public-Key: (2048 bit)
                Modulus:
                    00:c7:fe:51:3b:71:6f:bd:23:fd:86:8f:67:ce:80:
                    02:1d:32:21:07:aa:aa:cc:f3:f1:c0:2d:ef:22:5d:
                    a7:79:33:86:1e:0f:3c:9e:97:35:0f:33:65:0e:4e:
                    26:a2:99:3d:5f:9a:7c:49:4e:8e:06:78:12:4a:b6:
                    63:3f:31:22:62:64:d5:9b:ff:9b:ef:12:5e:4a:86:
                    d9:85:33:e2:dd:ac:da:d7:f8:1b:07:3e:b4:ab:21:
                    45:d4:eb:8f:65:07:7b:10:1c:be:1f:59:d1:88:fe:
                    e3:8c:91:21:a1:2d:8b:0d:50:35:57:59:fa:31:f8:
                    56:49:b9:6e:09:bc:12:18:e5:f4:b4:91:67:d2:5d:
                    34:dd:6b:5c:65:db:7c:11:45:cd:91:89:88:5e:1d:
                    5f:36:8f:24:74:f5:2b:db:28:7e:7a:af:71:e1:00:
                    9e:11:b8:2d:f6:24:04:27:cd:d5:27:11:2e:f6:a4:
                    c7:19:ec:f7:b2:38:29:21:9c:a3:17:ca:5c:78:2f:
                    d7:17:c9:f1:3d:b4:36:1e:98:1a:cd:6c:77:50:83:
                    4e:75:f1:70:0c:56:d1:2b:72:28:9e:42:63:d3:9c:
                    d4:47:cc:5a:d1:4d:38:9a:b6:87:fa:c5:e4:2f:2b:
                    12:eb:67:04:62:7b:bc:75:29:6f:de:1f:27:6a:a4:
                    f3:b1
                Exponent: 65537 (0x10001)
        X509v3 extensions:
            X509v3 Basic Constraints: 
                CA:FALSE
            Netscape Comment: 
                OpenSSL Generated Certificate
            X509v3 Subject Key Identifier: 
                86:8C:F5:D4:AE:69:9E:BA:0B:3D:AD:99:3E:10:D5:38:FB:D7:F3:D9
            X509v3 Authority Key Identifier: 
                keyid:8E:BE:98:71:C9:B7:F2:CC:6B:21:BF:9C:47:04:C6:7C:97:2F:2D:5D

    Signature Algorithm: sha256WithRSAEncryption
         69:71:a9:74:ff:23:38:be:a9:3a:1e:9b:4b:79:a5:08:06:73:
         6e:5b:08:d2:09:72:be:54:4e:65:6e:89:be:55:ee:4e:8e:5e:
         c1:c4:c0:f8:2a:d1:6d:05:89:72:ea:84:41:7d:1f:8d:1d:8d:
         cd:86:46:3b:6d:00:d5:48:30:59:39:e0:f4:56:0b:cb:55:54:
         9f:c3:00:b5:ca:0c:0b:83:07:a9:a9:ed:63:02:5a:05:f6:96:
         65:92:d0:53:7e:4f:c0:18:28:8d:51:7b:7d:d1:b6:12:5a:50:
         e1:06:02:b2:73:ee:7b:11:1d:7a:8d:ba:99:d9:f4:0f:30:20:
         a8:46:a2:56:13:31:74:29:6c:ed:93:25:ff:9c:f6:28:30:0e:
         14:20:7a:82:32:a3:28:16:a1:b6:c3:f7:e8:4a:d2:eb:16:5c:
         69:3a:8f:01:3e:e5:77:e4:dc:d1:76:92:10:46:94:bb:3c:1f:
         cb:81:f7:10:b2:c6:eb:30:13:25:8e:5a:29:b1:61:36:a5:69:
         f3:f0:94:0e:cf:0a:f1:1b:49:26:ab:39:68:0e:e7:81:ef:c8:
         5b:d0:85:75:51:4d:0e:85:6a:14:c5:0f:31:ce:a9:82:98:b3:
         4a:7d:0c:4a:7c:85:68:dc:58:95:6a:03:75:a2:d3:c3:fd:98:
         a5:77:f8:bc
-----BEGIN CERTIFICATE-----
MIIDtDCCApygAwIBAgIBATANBgkqhkiG9w0BAQsFADBeMQswCQYDVQQGEwJGSTER
MA8GA1UECAwISGVsc2lua2kxETAPBgNVBAcMCEhlbHNpbmtpMRMwEQYDVQQKDApM
b2tpdHRhamF0MRQwEgYDVQQDDAtFaW5vIEt1cGlhczAeFw0xODExMDIxMTEyNTZa
Fw0xOTExMDIxMTEyNTZaMGAxCzAJBgNVBAYTAkZJMREwDwYDVQQIDAhIZWxzaW5r
aTERMA8GA1UEBwwISGVsc2lua2kxEzARBgNVBAoMCkxva2l0dGFqYXQxFjAUBgNV
BAMMDTE3Mi4yOC4xNzEuNTQwggEiMA0GCSqGSIb3DQEBAQUAA4IBDwAwggEKAoIB
AQDH/lE7cW+9I/2Gj2fOgAIdMiEHqqrM8/HALe8iXad5M4YeDzyelzUPM2UOTiai
mT1fmnxJTo4GeBJKtmM/MSJiZNWb/5vvEl5KhtmFM+LdrNrX+BsHPrSrIUXU649l
B3sQHL4fWdGI/uOMkSGhLYsNUDVXWfox+FZJuW4JvBIY5fS0kWfSXTTda1xl23wR
Rc2RiYheHV82jyR09SvbKH56r3HhAJ4RuC32JAQnzdUnES72pMcZ7PeyOCkhnKMX
ylx4L9cXyfE9tDYemBrNbHdQg0518XAMVtErciieQmPTnNRHzFrRTTiatof6xeQv
KxLrZwRie7x1KW/eHydqpPOxAgMBAAGjezB5MAkGA1UdEwQCMAAwLAYJYIZIAYb4
QgENBB8WHU9wZW5TU0wgR2VuZXJhdGVkIENlcnRpZmljYXRlMB0GA1UdDgQWBBSG
jPXUrmmeugs9rZk+ENU4+9fz2TAfBgNVHSMEGDAWgBSOvphxybfyzGshv5xHBMZ8
ly8tXTANBgkqhkiG9w0BAQsFAAOCAQEAaXGpdP8jOL6pOh6bS3mlCAZzblsI0gly
vlROZW6JvlXuTo5ewcTA+CrRbQWJcuqEQX0fjR2NzYZGO20A1UgwWTng9FYLy1VU
n8MAtcoMC4MHqantYwJaBfaWZZLQU35PwBgojVF7fdG2ElpQ4QYCsnPuexEdeo26
mdn0DzAgqEaiVhMxdCls7ZMl/5z2KDAOFCB6gjKjKBahtsP36ErS6xZcaTqPAT7l
d+Tc0XaSEEaUuzwfy4H3ELLG6zATJY5aKbFhNqVp8/CUDs8K8RtJJqs5aA7nge/I
W9CFdVFNDoVqFMUPMc6pgpizSn0MSnyFaNxYlWoDdaLTw/2YpXf4vA==
-----END CERTIFICATE-----
