Certificate:
    Data:
        Version: 3 (0x2)
        Serial Number: 2 (0x2)
    Signature Algorithm: sha256WithRSAEncryption
        Issuer: C=FI, ST=Helsinki, L=Helsinki, O=Lokittajat, CN=Eino Kupias
        Validity
            Not Before: Nov  2 11:15:55 2018 GMT
            Not After : Nov  2 11:15:55 2019 GMT
        Subject: C=FI, ST=Helsinki, L=Helsinki, O=Lokittjat, OU=172.28.171.175, CN=172.28.171.175
        Subject Public Key Info:
            Public Key Algorithm: rsaEncryption
                Public-Key: (2048 bit)
                Modulus:
                    00:df:13:5d:26:d7:a6:b9:bf:43:75:59:59:4a:ff:
                    0c:29:f0:56:49:17:6f:26:aa:4f:0e:8a:37:3a:34:
                    c4:00:4d:7f:4a:83:03:2e:66:b0:a2:c0:74:cf:92:
                    6c:60:91:90:7b:96:7f:94:7e:30:f2:20:82:cb:02:
                    b7:b7:ef:68:bc:3a:d4:7c:c5:25:53:0d:1e:f8:6d:
                    ca:f0:96:ba:95:a5:c4:8b:98:d0:42:b1:19:97:d4:
                    03:b5:c3:19:e9:35:8e:cd:49:d2:fa:ad:63:fe:89:
                    ae:ea:7b:53:ee:cc:b2:c0:28:13:5f:db:60:fe:d7:
                    05:ac:b2:0a:c4:44:aa:f6:2f:b5:4f:22:b5:34:a8:
                    e3:9d:29:96:0d:e3:cc:36:af:34:b1:3b:61:14:36:
                    4d:b3:49:37:56:17:2c:13:79:e9:a2:7f:30:dc:fa:
                    72:a3:72:50:88:f6:c1:97:b9:e1:f5:68:05:59:9f:
                    ae:a4:be:f4:5e:ef:4f:2b:d4:90:84:e5:0b:e3:45:
                    2b:cc:59:30:03:1d:ab:31:62:05:8b:f1:1a:ff:e8:
                    20:24:27:dc:2b:fc:0c:c0:85:f1:9d:40:fe:39:00:
                    90:e1:e6:40:44:df:67:5b:cd:37:08:66:32:77:7b:
                    e4:e3:52:20:32:08:46:ac:57:24:35:fa:48:64:74:
                    e9:55
                Exponent: 65537 (0x10001)
        X509v3 extensions:
            X509v3 Basic Constraints: 
                CA:FALSE
            Netscape Comment: 
                OpenSSL Generated Certificate
            X509v3 Subject Key Identifier: 
                E3:F2:04:6A:40:AC:7E:78:A3:79:6A:93:51:AC:12:C8:84:B9:54:DD
            X509v3 Authority Key Identifier: 
                keyid:8E:BE:98:71:C9:B7:F2:CC:6B:21:BF:9C:47:04:C6:7C:97:2F:2D:5D

    Signature Algorithm: sha256WithRSAEncryption
         1b:3b:5b:21:8e:1c:45:7d:37:b5:4a:93:0f:29:44:12:29:5a:
         2d:e6:3b:76:37:57:83:a6:ee:87:ac:9b:13:88:7b:cc:b8:bc:
         a1:09:33:6b:ff:32:9d:5d:11:b4:cb:35:5d:ad:21:fa:d4:bf:
         90:f1:9e:d6:a4:1e:0e:89:23:9e:56:f5:f1:8f:df:2b:4b:0b:
         ef:af:ab:76:64:77:60:53:20:ec:6b:41:b8:fe:22:83:72:f3:
         55:09:7c:28:2f:c1:14:44:4f:df:46:dc:ac:fd:50:62:86:0b:
         bc:c9:10:3c:14:35:d0:d9:f5:b6:ef:92:6b:ae:e8:ac:bf:db:
         79:ec:bb:79:57:63:c2:06:51:8f:2e:6a:85:0e:98:3d:9e:e6:
         73:4d:cb:eb:af:67:d7:0e:4d:e9:89:57:1a:84:19:e7:91:06:
         c9:be:33:1b:c9:24:11:7b:be:d1:4f:e7:46:f0:f6:2e:cc:ba:
         77:ab:bc:47:e1:26:88:12:bf:d5:91:2d:d8:d2:c2:da:f1:41:
         31:db:ac:95:67:85:11:42:58:49:8f:ff:5b:7b:68:a0:3a:2b:
         7e:4f:37:62:51:73:aa:d7:fb:af:a5:c6:21:22:3e:64:2f:3c:
         01:52:fd:04:83:75:73:93:25:5f:a8:1e:99:5a:6d:2b:9c:bf:
         af:b0:14:4c
-----BEGIN CERTIFICATE-----
MIIDzTCCArWgAwIBAgIBAjANBgkqhkiG9w0BAQsFADBeMQswCQYDVQQGEwJGSTER
MA8GA1UECAwISGVsc2lua2kxETAPBgNVBAcMCEhlbHNpbmtpMRMwEQYDVQQKDApM
b2tpdHRhamF0MRQwEgYDVQQDDAtFaW5vIEt1cGlhczAeFw0xODExMDIxMTE1NTVa
Fw0xOTExMDIxMTE1NTVaMHkxCzAJBgNVBAYTAkZJMREwDwYDVQQIDAhIZWxzaW5r
aTERMA8GA1UEBwwISGVsc2lua2kxEjAQBgNVBAoMCUxva2l0dGphdDEXMBUGA1UE
CwwOMTcyLjI4LjE3MS4xNzUxFzAVBgNVBAMMDjE3Mi4yOC4xNzEuMTc1MIIBIjAN
BgkqhkiG9w0BAQEFAAOCAQ8AMIIBCgKCAQEA3xNdJtemub9DdVlZSv8MKfBWSRdv
JqpPDoo3OjTEAE1/SoMDLmawosB0z5JsYJGQe5Z/lH4w8iCCywK3t+9ovDrUfMUl
Uw0e+G3K8Ja6laXEi5jQQrEZl9QDtcMZ6TWOzUnS+q1j/omu6ntT7syywCgTX9tg
/tcFrLIKxESq9i+1TyK1NKjjnSmWDePMNq80sTthFDZNs0k3VhcsE3npon8w3Ppy
o3JQiPbBl7nh9WgFWZ+upL70Xu9PK9SQhOUL40UrzFkwAx2rMWIFi/Ea/+ggJCfc
K/wMwIXxnUD+OQCQ4eZARN9nW803CGYyd3vk41IgMghGrFckNfpIZHTpVQIDAQAB
o3sweTAJBgNVHRMEAjAAMCwGCWCGSAGG+EIBDQQfFh1PcGVuU1NMIEdlbmVyYXRl
ZCBDZXJ0aWZpY2F0ZTAdBgNVHQ4EFgQU4/IEakCsfnijeWqTUawSyIS5VN0wHwYD
VR0jBBgwFoAUjr6Yccm38sxrIb+cRwTGfJcvLV0wDQYJKoZIhvcNAQELBQADggEB
ABs7WyGOHEV9N7VKkw8pRBIpWi3mO3Y3V4Om7oesmxOIe8y4vKEJM2v/Mp1dEbTL
NV2tIfrUv5DxntakHg6JI55W9fGP3ytLC++vq3Zkd2BTIOxrQbj+IoNy81UJfCgv
wRRET99G3Kz9UGKGC7zJEDwUNdDZ9bbvkmuu6Ky/23nsu3lXY8IGUY8uaoUOmD2e
5nNNy+uvZ9cOTemJVxqEGeeRBsm+MxvJJBF7vtFP50bw9i7MunervEfhJogSv9WR
LdjSwtrxQTHbrJVnhRFCWEmP/1t7aKA6K35PN2JRc6rX+6+lxiEiPmQvPAFS/QSD
dXOTJV+oHplabSucv6+wFEw=
-----END CERTIFICATE-----
